target datalayout = "e-m:e-p270:32:32-p271:32:32-p272:64:64-i64:64-i128:128-f80:128-n8:16:32:64-S128"
target triple = "x86_64-pc-linux-gnu"

%struct.nghttp2_buf = type { ptr, ptr, ptr, ptr, ptr }
%struct.nghttp2_bufs = type { ptr, ptr, ptr, i64, i64, i64, i64, i64 }
%struct.nghttp2_buf_chain = type { ptr, %struct.nghttp2_buf }

; Function Attrs: inlinehint nounwind uwtable
define internal i64 @nghttp2_max_size(i64 noundef %0, i64 noundef %1) #3 {
  %3 = alloca i64, align 8
  %4 = alloca i64, align 8
  store i64 %0, ptr %3, align 8, !tbaa !14
  store i64 %1, ptr %4, align 8, !tbaa !14
  %5 = load i64, ptr %3, align 8, !tbaa !14
  %6 = load i64, ptr %4, align 8, !tbaa !14
  %7 = icmp ult i64 %5, %6
  br i1 %7, label %8, label %10

8:                                                ; preds = %2
  %9 = load i64, ptr %4, align 8, !tbaa !14
  br label %12

10:                                               ; preds = %2
  %11 = load i64, ptr %3, align 8, !tbaa !14
  br label %12

12:                                               ; preds = %10, %8
  %13 = phi i64 [ %9, %8 ], [ %11, %10 ]
  ret i64 %13
}

; Function Attrs: nounwind uwtable
define hidden i32 @nghttp2_buf_reserve(ptr noundef %0, i64 noundef %1, ptr noundef %2) #0 {
  %4 = alloca i32, align 4
  %5 = alloca ptr, align 8
  %6 = alloca i64, align 8
  %7 = alloca ptr, align 8
  %8 = alloca ptr, align 8
  %9 = alloca i64, align 8
  %10 = alloca i32, align 4
  store ptr %0, ptr %5, align 8, !tbaa !3
  store i64 %1, ptr %6, align 8, !tbaa !14
  store ptr %2, ptr %7, align 8, !tbaa !3
  call void @llvm.lifetime.start.p0(i64 8, ptr %8) #4
  call void @llvm.lifetime.start.p0(i64 8, ptr %9) #4
  %11 = load ptr, ptr %5, align 8, !tbaa !3
  %12 = getelementptr inbounds nuw %struct.nghttp2_buf, ptr %11, i32 0, i32 1
  %13 = load ptr, ptr %12, align 8, !tbaa !10
  %14 = load ptr, ptr %5, align 8, !tbaa !3
  %15 = getelementptr inbounds nuw %struct.nghttp2_buf, ptr %14, i32 0, i32 0
  %16 = load ptr, ptr %15, align 8, !tbaa !7
  %17 = ptrtoint ptr %13 to i64
  %18 = ptrtoint ptr %16 to i64
  %19 = sub i64 %17, %18
  store i64 %19, ptr %9, align 8, !tbaa !14
  %20 = load i64, ptr %9, align 8, !tbaa !14
  %21 = load i64, ptr %6, align 8, !tbaa !14
  %22 = icmp uge i64 %20, %21
  br i1 %22, label %23, label %24

23:                                               ; preds = %3
  store i32 0, ptr %4, align 4
  store i32 1, ptr %10, align 4
  br label %86

24:                                               ; preds = %3
  %25 = load i64, ptr %6, align 8, !tbaa !14
  %26 = load i64, ptr %9, align 8, !tbaa !14
  %27 = mul i64 %26, 2
  %28 = call i64 @nghttp2_max_size(i64 noundef %25, i64 noundef %27)
  store i64 %28, ptr %6, align 8, !tbaa !14
  %29 = load ptr, ptr %7, align 8, !tbaa !3
  %30 = load ptr, ptr %5, align 8, !tbaa !3
  %31 = getelementptr inbounds nuw %struct.nghttp2_buf, ptr %30, i32 0, i32 0
  %32 = load ptr, ptr %31, align 8, !tbaa !7
  %33 = load i64, ptr %6, align 8, !tbaa !14
  %34 = call ptr @nghttp2_mem_realloc(ptr noundef %29, ptr noundef %32, i64 noundef %33)
  store ptr %34, ptr %8, align 8, !tbaa !16
  %35 = load ptr, ptr %8, align 8, !tbaa !16
  %36 = icmp eq ptr %35, null
  br i1 %36, label %37, label %38

37:                                               ; preds = %24
  store i32 -901, ptr %4, align 4
  store i32 1, ptr %10, align 4
  br label %86

38:                                               ; preds = %24
  %39 = load ptr, ptr %8, align 8, !tbaa !16
  %40 = load ptr, ptr %5, align 8, !tbaa !3
  %41 = getelementptr inbounds nuw %struct.nghttp2_buf, ptr %40, i32 0, i32 2
  %42 = load ptr, ptr %41, align 8, !tbaa !11
  %43 = load ptr, ptr %5, align 8, !tbaa !3
  %44 = getelementptr inbounds nuw %struct.nghttp2_buf, ptr %43, i32 0, i32 0
  %45 = load ptr, ptr %44, align 8, !tbaa !7
  %46 = ptrtoint ptr %42 to i64
  %47 = ptrtoint ptr %45 to i64
  %48 = sub i64 %46, %47
  %49 = getelementptr inbounds i8, ptr %39, i64 %48
  %50 = load ptr, ptr %5, align 8, !tbaa !3
  %51 = getelementptr inbounds nuw %struct.nghttp2_buf, ptr %50, i32 0, i32 2
  store ptr %49, ptr %51, align 8, !tbaa !11
  %52 = load ptr, ptr %8, align 8, !tbaa !16
  %53 = load ptr, ptr %5, align 8, !tbaa !3
  %54 = getelementptr inbounds nuw %struct.nghttp2_buf, ptr %53, i32 0, i32 3
  %55 = load ptr, ptr %54, align 8, !tbaa !12
  %56 = load ptr, ptr %5, align 8, !tbaa !3
  %57 = getelementptr inbounds nuw %struct.nghttp2_buf, ptr %56, i32 0, i32 0
  %58 = load ptr, ptr %57, align 8, !tbaa !7
  %59 = ptrtoint ptr %55 to i64
  %60 = ptrtoint ptr %58 to i64
  %61 = sub i64 %59, %60
  %62 = getelementptr inbounds i8, ptr %52, i64 %61
  %63 = load ptr, ptr %5, align 8, !tbaa !3
  %64 = getelementptr inbounds nuw %struct.nghttp2_buf, ptr %63, i32 0, i32 3
  store ptr %62, ptr %64, align 8, !tbaa !12
  %65 = load ptr, ptr %8, align 8, !tbaa !16
  %66 = load ptr, ptr %5, align 8, !tbaa !3
  %67 = getelementptr inbounds nuw %struct.nghttp2_buf, ptr %66, i32 0, i32 4
  %68 = load ptr, ptr %67, align 8, !tbaa !13
  %69 = load ptr, ptr %5, align 8, !tbaa !3
  %70 = getelementptr inbounds nuw %struct.nghttp2_buf, ptr %69, i32 0, i32 0
  %71 = load ptr, ptr %70, align 8, !tbaa !7
  %72 = ptrtoint ptr %68 to i64
  %73 = ptrtoint ptr %71 to i64
  %74 = sub i64 %72, %73
  %75 = getelementptr inbounds i8, ptr %65, i64 %74
  %76 = load ptr, ptr %5, align 8, !tbaa !3
  %77 = getelementptr inbounds nuw %struct.nghttp2_buf, ptr %76, i32 0, i32 4
  store ptr %75, ptr %77, align 8, !tbaa !13
  %78 = load ptr, ptr %8, align 8, !tbaa !16
  %79 = load ptr, ptr %5, align 8, !tbaa !3
  %80 = getelementptr inbounds nuw %struct.nghttp2_buf, ptr %79, i32 0, i32 0
  store ptr %78, ptr %80, align 8, !tbaa !7
  %81 = load ptr, ptr %8, align 8, !tbaa !16
  %82 = load i64, ptr %6, align 8, !tbaa !14
  %83 = getelementptr inbounds nuw i8, ptr %81, i64 %82
  %84 = load ptr, ptr %5, align 8, !tbaa !3
  %85 = getelementptr inbounds nuw %struct.nghttp2_buf, ptr %84, i32 0, i32 1
  store ptr %83, ptr %85, align 8, !tbaa !10
  store i32 0, ptr %4, align 4
  store i32 1, ptr %10, align 4
  br label %86

86:                                               ; preds = %38, %37, %23
  call void @llvm.lifetime.end.p0(i64 8, ptr %9) #4
  call void @llvm.lifetime.end.p0(i64 8, ptr %8) #4
  %87 = load i32, ptr %4, align 4
  ret i32 %87
}

; Function Attrs: nounwind uwtable
define hidden void @nghttp2_buf_init(ptr noundef %0) #0 {
  %2 = alloca ptr, align 8
  store ptr %0, ptr %2, align 8, !tbaa !3
  %3 = load ptr, ptr %2, align 8, !tbaa !3
  %4 = getelementptr inbounds nuw %struct.nghttp2_buf, ptr %3, i32 0, i32 0
  store ptr null, ptr %4, align 8, !tbaa !7
  %5 = load ptr, ptr %2, align 8, !tbaa !3
  %6 = getelementptr inbounds nuw %struct.nghttp2_buf, ptr %5, i32 0, i32 1
  store ptr null, ptr %6, align 8, !tbaa !10
  %7 = load ptr, ptr %2, align 8, !tbaa !3
  %8 = getelementptr inbounds nuw %struct.nghttp2_buf, ptr %7, i32 0, i32 2
  store ptr null, ptr %8, align 8, !tbaa !11
  %9 = load ptr, ptr %2, align 8, !tbaa !3
  %10 = getelementptr inbounds nuw %struct.nghttp2_buf, ptr %9, i32 0, i32 3
  store ptr null, ptr %10, align 8, !tbaa !12
  %11 = load ptr, ptr %2, align 8, !tbaa !3
  %12 = getelementptr inbounds nuw %struct.nghttp2_buf, ptr %11, i32 0, i32 4
  store ptr null, ptr %12, align 8, !tbaa !13
  ret void
}

; Function Attrs: nounwind uwtable
define hidden i32 @nghttp2_buf_init2(ptr noundef %0, i64 noundef %1, ptr noundef %2) #0 {
  %4 = alloca ptr, align 8
  %5 = alloca i64, align 8
  %6 = alloca ptr, align 8
  store ptr %0, ptr %4, align 8, !tbaa !3
  store i64 %1, ptr %5, align 8, !tbaa !14
  store ptr %2, ptr %6, align 8, !tbaa !3
  %7 = load ptr, ptr %4, align 8, !tbaa !3
  call void @nghttp2_buf_init(ptr noundef %7)
  %8 = load ptr, ptr %4, align 8, !tbaa !3
  %9 = load i64, ptr %5, align 8, !tbaa !14
  %10 = load ptr, ptr %6, align 8, !tbaa !3
  %11 = call i32 @nghttp2_buf_reserve(ptr noundef %8, i64 noundef %9, ptr noundef %10)
  ret i32 %11
}

; Function Attrs: nounwind uwtable
define internal i32 @buf_chain_new(ptr noundef %0, i64 noundef %1, ptr noundef %2) #0 {
  %4 = alloca i32, align 4
  %5 = alloca ptr, align 8
  %6 = alloca i64, align 8
  %7 = alloca ptr, align 8
  %8 = alloca i32, align 4
  %9 = alloca i32, align 4
  store ptr %0, ptr %5, align 8, !tbaa !33
  store i64 %1, ptr %6, align 8, !tbaa !14
  store ptr %2, ptr %7, align 8, !tbaa !3
  call void @llvm.lifetime.start.p0(i64 4, ptr %8) #4
  %10 = load ptr, ptr %7, align 8, !tbaa !3
  %11 = call ptr @nghttp2_mem_malloc(ptr noundef %10, i64 noundef 48)
  %12 = load ptr, ptr %5, align 8, !tbaa !33
  store ptr %11, ptr %12, align 8, !tbaa !23
  %13 = load ptr, ptr %5, align 8, !tbaa !33
  %14 = load ptr, ptr %13, align 8, !tbaa !23
  %15 = icmp eq ptr %14, null
  br i1 %15, label %16, label %17

16:                                               ; preds = %3
  store i32 -901, ptr %4, align 4
  store i32 1, ptr %9, align 4
  br label %34

17:                                               ; preds = %3
  %18 = load ptr, ptr %5, align 8, !tbaa !33
  %19 = load ptr, ptr %18, align 8, !tbaa !23
  %20 = getelementptr inbounds nuw %struct.nghttp2_buf_chain, ptr %19, i32 0, i32 0
  store ptr null, ptr %20, align 8, !tbaa !36
  %21 = load ptr, ptr %5, align 8, !tbaa !33
  %22 = load ptr, ptr %21, align 8, !tbaa !23
  %23 = getelementptr inbounds nuw %struct.nghttp2_buf_chain, ptr %22, i32 0, i32 1
  %24 = load i64, ptr %6, align 8, !tbaa !14
  %25 = load ptr, ptr %7, align 8, !tbaa !3
  %26 = call i32 @nghttp2_buf_init2(ptr noundef %23, i64 noundef %24, ptr noundef %25)
  store i32 %26, ptr %8, align 4, !tbaa !17
  %27 = load i32, ptr %8, align 4, !tbaa !17
  %28 = icmp ne i32 %27, 0
  br i1 %28, label %29, label %33

29:                                               ; preds = %17
  %30 = load ptr, ptr %7, align 8, !tbaa !3
  %31 = load ptr, ptr %5, align 8, !tbaa !33
  %32 = load ptr, ptr %31, align 8, !tbaa !23
  call void @nghttp2_mem_free(ptr noundef %30, ptr noundef %32)
  store i32 -901, ptr %4, align 4
  store i32 1, ptr %9, align 4
  br label %34

33:                                               ; preds = %17
  store i32 0, ptr %4, align 4
  store i32 1, ptr %9, align 4
  br label %34

34:                                               ; preds = %33, %29, %16
  call void @llvm.lifetime.end.p0(i64 4, ptr %8) #4
  %35 = load i32, ptr %4, align 4
  ret i32 %35
}

; Function Attrs: nounwind uwtable
define hidden i32 @nghttp2_bufs_init3(ptr noundef %0, i64 noundef %1, i64 noundef %2, i64 noundef %3, i64 noundef %4, ptr noundef %5) #0 {
  %7 = alloca i32, align 4
  %8 = alloca ptr, align 8
  %9 = alloca i64, align 8
  %10 = alloca i64, align 8
  %11 = alloca i64, align 8
  %12 = alloca i64, align 8
  %13 = alloca ptr, align 8
  %14 = alloca i32, align 4
  %15 = alloca ptr, align 8
  %16 = alloca i32, align 4
  store ptr %0, ptr %8, align 8, !tbaa !3
  store i64 %1, ptr %9, align 8, !tbaa !14
  store i64 %2, ptr %10, align 8, !tbaa !14
  store i64 %3, ptr %11, align 8, !tbaa !14
  store i64 %4, ptr %12, align 8, !tbaa !14
  store ptr %5, ptr %13, align 8, !tbaa !3
  call void @llvm.lifetime.start.p0(i64 4, ptr %14) #4
  call void @llvm.lifetime.start.p0(i64 8, ptr %15) #4
  %17 = load i64, ptr %11, align 8, !tbaa !14
  %18 = icmp eq i64 %17, 0
  br i1 %18, label %27, label %19

19:                                               ; preds = %6
  %20 = load i64, ptr %10, align 8, !tbaa !14
  %21 = load i64, ptr %11, align 8, !tbaa !14
  %22 = icmp ult i64 %20, %21
  br i1 %22, label %27, label %23

23:                                               ; preds = %19
  %24 = load i64, ptr %9, align 8, !tbaa !14
  %25 = load i64, ptr %12, align 8, !tbaa !14
  %26 = icmp ult i64 %24, %25
  br i1 %26, label %27, label %28

27:                                               ; preds = %23, %19, %6
  store i32 -501, ptr %7, align 4
  store i32 1, ptr %16, align 4
  br label %81

28:                                               ; preds = %23
  %29 = load i64, ptr %9, align 8, !tbaa !14
  %30 = load ptr, ptr %13, align 8, !tbaa !3
  %31 = call i32 @buf_chain_new(ptr noundef %15, i64 noundef %29, ptr noundef %30)
  store i32 %31, ptr %14, align 4, !tbaa !17
  %32 = load i32, ptr %14, align 4, !tbaa !17
  %33 = icmp ne i32 %32, 0
  br i1 %33, label %34, label %36

34:                                               ; preds = %28
  %35 = load i32, ptr %14, align 4, !tbaa !17
  store i32 %35, ptr %7, align 4
  store i32 1, ptr %16, align 4
  br label %81

36:                                               ; preds = %28
  %37 = load ptr, ptr %13, align 8, !tbaa !3
  %38 = load ptr, ptr %8, align 8, !tbaa !3
  %39 = getelementptr inbounds nuw %struct.nghttp2_bufs, ptr %38, i32 0, i32 2
  store ptr %37, ptr %39, align 8, !tbaa !19
  %40 = load i64, ptr %12, align 8, !tbaa !14
  %41 = load ptr, ptr %8, align 8, !tbaa !3
  %42 = getelementptr inbounds nuw %struct.nghttp2_bufs, ptr %41, i32 0, i32 7
  store i64 %40, ptr %42, align 8, !tbaa !22
  %43 = load ptr, ptr %15, align 8, !tbaa !23
  %44 = load ptr, ptr %8, align 8, !tbaa !3
  %45 = getelementptr inbounds nuw %struct.nghttp2_bufs, ptr %44, i32 0, i32 0
  store ptr %43, ptr %45, align 8, !tbaa !24
  %46 = load ptr, ptr %8, align 8, !tbaa !3
  %47 = getelementptr inbounds nuw %struct.nghttp2_bufs, ptr %46, i32 0, i32 0
  %48 = load ptr, ptr %47, align 8, !tbaa !24
  %49 = load ptr, ptr %8, align 8, !tbaa !3
  %50 = getelementptr inbounds nuw %struct.nghttp2_bufs, ptr %49, i32 0, i32 1
  store ptr %48, ptr %50, align 8, !tbaa !25
  br label %51

51:                                               ; preds = %36
  %52 = load i64, ptr %12, align 8, !tbaa !14
  %53 = load ptr, ptr %8, align 8, !tbaa !3
  %54 = getelementptr inbounds nuw %struct.nghttp2_bufs, ptr %53, i32 0, i32 1
  %55 = load ptr, ptr %54, align 8, !tbaa !25
  %56 = getelementptr inbounds nuw %struct.nghttp2_buf_chain, ptr %55, i32 0, i32 1
  %57 = getelementptr inbounds nuw %struct.nghttp2_buf, ptr %56, i32 0, i32 2
  %58 = load ptr, ptr %57, align 8, !tbaa !26
  %59 = getelementptr inbounds nuw i8, ptr %58, i64 %52
  store ptr %59, ptr %57, align 8, !tbaa !26
  %60 = load i64, ptr %12, align 8, !tbaa !14
  %61 = load ptr, ptr %8, align 8, !tbaa !3
  %62 = getelementptr inbounds nuw %struct.nghttp2_bufs, ptr %61, i32 0, i32 1
  %63 = load ptr, ptr %62, align 8, !tbaa !25
  %64 = getelementptr inbounds nuw %struct.nghttp2_buf_chain, ptr %63, i32 0, i32 1
  %65 = getelementptr inbounds nuw %struct.nghttp2_buf, ptr %64, i32 0, i32 3
  %66 = load ptr, ptr %65, align 8, !tbaa !28
  %67 = getelementptr inbounds nuw i8, ptr %66, i64 %60
  store ptr %67, ptr %65, align 8, !tbaa !28
  br label %68

68:                                               ; preds = %51
  br label %69

69:                                               ; preds = %68
  %70 = load i64, ptr %9, align 8, !tbaa !14
  %71 = load ptr, ptr %8, align 8, !tbaa !3
  %72 = getelementptr inbounds nuw %struct.nghttp2_bufs, ptr %71, i32 0, i32 3
  store i64 %70, ptr %72, align 8, !tbaa !29
  %73 = load ptr, ptr %8, align 8, !tbaa !3
  %74 = getelementptr inbounds nuw %struct.nghttp2_bufs, ptr %73, i32 0, i32 5
  store i64 1, ptr %74, align 8, !tbaa !30
  %75 = load i64, ptr %10, align 8, !tbaa !14
  %76 = load ptr, ptr %8, align 8, !tbaa !3
  %77 = getelementptr inbounds nuw %struct.nghttp2_bufs, ptr %76, i32 0, i32 4
  store i64 %75, ptr %77, align 8, !tbaa !31
  %78 = load i64, ptr %11, align 8, !tbaa !14
  %79 = load ptr, ptr %8, align 8, !tbaa !3
  %80 = getelementptr inbounds nuw %struct.nghttp2_bufs, ptr %79, i32 0, i32 6
  store i64 %78, ptr %80, align 8, !tbaa !32
  store i32 0, ptr %7, align 4
  store i32 1, ptr %16, align 4
  br label %81

81:                                               ; preds = %69, %34, %27
  call void @llvm.lifetime.end.p0(i64 8, ptr %15) #4
  call void @llvm.lifetime.end.p0(i64 4, ptr %14) #4
  %82 = load i32, ptr %7, align 4
  ret i32 %82
}