; Function Attrs: nounwind uwtable
define hidden range(i32 -901, 1) i32 @nghttp2_bufs_init3(ptr noundef writeonly captures(none) %0, i64 noundef %1, i64 noundef %2, i64 noundef %3, i64 noundef %4, ptr noundef %5) local_unnamed_addr #1 {
  %7 = add i64 %3, -1
  %or.cond = icmp uge i64 %7, %2
  %8 = icmp ult i64 %1, %4
  %or.cond32 = or i1 %or.cond, %8
  br i1 %or.cond32, label %buf_chain_new.exit, label %9

9:                                                ; preds = %6
  %10 = tail call ptr @nghttp2_mem_malloc(ptr noundef %5, i64 noundef 48) #10
  %11 = icmp eq ptr %10, null
  br i1 %11, label %buf_chain_new.exit, label %12

12:                                               ; preds = %9
  %13 = getelementptr inbounds nuw i8, ptr %10, i64 8
  %14 = getelementptr inbounds nuw i8, ptr %10, i64 16
  %.not.i.not.i.i = icmp eq i64 %1, 0
  tail call void @llvm.memset.p0.i64(ptr noundef nonnull align 8 dereferenceable(48) %10, i8 0, i64 48, i1 false)
  br i1 %.not.i.not.i.i, label %37, label %15

15:                                               ; preds = %12
  %16 = tail call ptr @nghttp2_mem_realloc(ptr noundef %5, ptr noundef null, i64 noundef %1) #10
  %17 = icmp eq ptr %16, null
  br i1 %17, label %nghttp2_buf_init2.exit.i, label %18

18:                                               ; preds = %15
  %19 = getelementptr inbounds nuw i8, ptr %10, i64 24
  %20 = load ptr, ptr %19, align 8, !tbaa !3
  %21 = load ptr, ptr %13, align 8, !tbaa !9
  %22 = ptrtoint ptr %20 to i64
  %23 = ptrtoint ptr %21 to i64
  %24 = sub i64 %22, %23
  %25 = getelementptr inbounds i8, ptr %16, i64 %24
  %26 = getelementptr inbounds nuw i8, ptr %10, i64 32
  %27 = load ptr, ptr %26, align 8, !tbaa !10
  %28 = ptrtoint ptr %27 to i64
  %29 = sub i64 %28, %23
  %30 = getelementptr inbounds i8, ptr %16, i64 %29
  %31 = getelementptr inbounds nuw i8, ptr %10, i64 40
  %32 = load ptr, ptr %31, align 8, !tbaa !11
  %33 = ptrtoint ptr %32 to i64
  %34 = sub i64 %33, %23
  %35 = getelementptr inbounds i8, ptr %16, i64 %34
  store ptr %35, ptr %31, align 8, !tbaa !11
  store ptr %16, ptr %13, align 8, !tbaa !9
  %36 = getelementptr inbounds nuw i8, ptr %16, i64 %1
  store ptr %36, ptr %14, align 8, !tbaa !12
  br label %37

nghttp2_buf_init2.exit.i:                         ; preds = %15
  tail call void @nghttp2_mem_free(ptr noundef %5, ptr noundef nonnull %10) #10
  br label %buf_chain_new.exit

37:                                               ; preds = %18, %12
  %38 = phi ptr [ %30, %18 ], [ null, %12 ]
  %39 = phi ptr [ %25, %18 ], [ null, %12 ]
  %40 = getelementptr inbounds nuw i8, ptr %0, i64 16
  store ptr %5, ptr %40, align 8, !tbaa !13
  %41 = getelementptr inbounds nuw i8, ptr %0, i64 56
  store i64 %4, ptr %41, align 8, !tbaa !17
  store ptr %10, ptr %0, align 8, !tbaa !18
  %42 = getelementptr inbounds nuw i8, ptr %0, i64 8
  store ptr %10, ptr %42, align 8, !tbaa !19
  %43 = getelementptr inbounds nuw i8, ptr %10, i64 24
  %44 = getelementptr inbounds nuw i8, ptr %39, i64 %4
  store ptr %44, ptr %43, align 8, !tbaa !20
  %45 = getelementptr inbounds nuw i8, ptr %10, i64 32
  %46 = getelementptr inbounds nuw i8, ptr %38, i64 %4
  store ptr %46, ptr %45, align 8, !tbaa !22
  %47 = getelementptr inbounds nuw i8, ptr %0, i64 24
  store i64 %1, ptr %47, align 8, !tbaa !23
  %48 = getelementptr inbounds nuw i8, ptr %0, i64 40
  store i64 1, ptr %48, align 8, !tbaa !24
  %49 = getelementptr inbounds nuw i8, ptr %0, i64 32
  store i64 %2, ptr %49, align 8, !tbaa !25
  %50 = getelementptr inbounds nuw i8, ptr %0, i64 48
  store i64 %3, ptr %50, align 8, !tbaa !26
  br label %buf_chain_new.exit

buf_chain_new.exit:                               ; preds = %nghttp2_buf_init2.exit.i, %9, %6, %37
  %.0 = phi i32 [ 0, %37 ], [ -501, %6 ], [ -901, %nghttp2_buf_init2.exit.i ], [ -901, %9 ]
  ret i32 %.0
}